LIBRARY MMICustomizer.dll
EXPORTS
??0CCustomizeEngine@@QAE@ABV0@@Z
??0CCustomizeEngine@@QAE@XZ
??1CCustomizeEngine@@UAE@XZ
??4CCustomizeEngine@@QAEAAV0@ABV0@@Z
?AddApplicationInfo@CCustomizeEngine@@QAEXIPAXII@Z
?AddImageResource@CCustomizeEngine@@QAE?AW4ERR@@GPAX0@Z
?AddStringResource@CCustomizeEngine@@QAE?AW4ERR@@GPAX0@Z
?ClearResources@CCustomizeEngine@@QAE?AW4ERR@@XZ
?CreateMenuResource@CCustomizeEngine@@QAE?AW4ERR@@PAUCustom_MenuItem@@G@Z
?Execute@CCustomizeEngine@@QAEXPAUHWND__@@@Z
?Free@CCustomizeEngine@@QAEXXZ
?FreeAll@CCustomizeEngine@@QAEXXZ
?GenerateAddStringResourceFiles@CCustomizeEngine@@QAE?AW4ERR@@PAXG@Z
?GenerateImageMapFiles@CCustomizeEngine@@QAE?AW4ERR@@PAXG@Z
?GenerateImageMapSearchFiles@CCustomizeEngine@@QAE?AW4ERR@@PAXG@Z
?GenerateImageResourceFiles@CCustomizeEngine@@QAE?AW4ERR@@PAXG@Z
?GenerateStringMapFiles@CCustomizeEngine@@QAE?AW4ERR@@PAXG@Z
?GenerateStringResourceFiles@CCustomizeEngine@@QAE?AW4ERR@@PAXGI@Z
?GenerateStringStructFiles@CCustomizeEngine@@QAE?AW4ERR@@PAXIII@Z
?GetCustImgPath@CCustomizeEngine@@QAEXPAPAX@Z
?GetImageMap@CCustomizeEngine@@QAEXPAPAXPAH@Z
?GetImageRes@CCustomizeEngine@@QAEXPAPAX0PAH@Z
?GetMMIThemes@CCustomizeEngine@@QAEXPAPAXPAH@Z
?GetMMIThemesName@CCustomizeEngine@@QAEXPAPAXPAH@Z
?GetStrMapSearch@CCustomizeEngine@@QAEXPAPAXPAH@Z
?GetStringMap@CCustomizeEngine@@QAEXPAPAXPAH@Z
?GetStringResSize@CCustomizeEngine@@QAEXPAH@Z
?GetThemesCompInfo@CCustomizeEngine@@QAEXPAPAXPAH@Z
?GetWindow@CCustomizeEngine@@QAEPAXXZ
?SetCallBackHandler@CCustomizeEngine@@QAEXP6AXPAX@Z@Z
?SetCurrentLanguage@CCustomizeEngine@@QAEXPAX@Z
?SetCurrentScreenResource@CCustomizeEngine@@QAEXPAX@Z
?SetCustImgPath@CCustomizeEngine@@QAEXPAX@Z
?SetImageMap@CCustomizeEngine@@QAEXPAXH@Z
?SetImageRes@CCustomizeEngine@@QAEXPAX0H@Z
?SetImageSearchMap@CCustomizeEngine@@QAEXPAXH@Z
?SetMMIThemes@CCustomizeEngine@@QAEXPAXH@Z
?SetMMIThemesName@CCustomizeEngine@@QAEXPAXH@Z
?SetMenuRes@CCustomizeEngine@@QAEXPAXH@Z
?SetStrMapSearch@CCustomizeEngine@@QAEXPAXH@Z
?SetStringMap@CCustomizeEngine@@QAEXPAXH@Z
?SetStringRes@CCustomizeEngine@@QAEXPAXH@Z
?SetThemesCompInfo@CCustomizeEngine@@QAEXPAXH@Z
MTK_TEST
mtk_AddApplicationInfo
mtk_AddImageResource
mtk_AddStringResource
mtk_ClearResources
mtk_CreateMenuResource
mtk_GenerateAddStringResourceFiles
mtk_GenerateImageMapFiles
mtk_GenerateImageMapSearchFiles
mtk_GenerateImageResourceFiles
mtk_GenerateStringMapFiles
mtk_GenerateStringResourceFiles
mtk_GenerateStringStructFiles
mtk_SetCurrentLanguage
mtk_SetCustImgPath
